
vec_plus.elf:     file format elf32-littleriscv


Disassembly of section .text:

00000000 <_start>:
   0:	00020137          	lui	sp,0x20
   4:	0d8000ef          	jal	dc <main>
   8:	0ff57513          	zext.b	a0,a0
   c:	00100073          	ebreak

00000010 <loop>:
  10:	0000006f          	j	10 <loop>

00000014 <printInt>:
  14:	fe010113          	addi	sp,sp,-32 # 1ffe0 <judgeResult+0x1efa0>
  18:	00812e23          	sw	s0,28(sp)
  1c:	02010413          	addi	s0,sp,32
  20:	fea42623          	sw	a0,-20(s0)
  24:	000017b7          	lui	a5,0x1
  28:	0407a703          	lw	a4,64(a5) # 1040 <judgeResult>
  2c:	fec42783          	lw	a5,-20(s0)
  30:	00f74733          	xor	a4,a4,a5
  34:	000017b7          	lui	a5,0x1
  38:	04e7a023          	sw	a4,64(a5) # 1040 <judgeResult>
  3c:	000017b7          	lui	a5,0x1
  40:	0407a783          	lw	a5,64(a5) # 1040 <judgeResult>
  44:	0ad78713          	addi	a4,a5,173
  48:	000017b7          	lui	a5,0x1
  4c:	04e7a023          	sw	a4,64(a5) # 1040 <judgeResult>
  50:	00000013          	nop
  54:	01c12403          	lw	s0,28(sp)
  58:	02010113          	addi	sp,sp,32
  5c:	00008067          	ret

00000060 <printStr>:
  60:	fd010113          	addi	sp,sp,-48
  64:	02812623          	sw	s0,44(sp)
  68:	03010413          	addi	s0,sp,48
  6c:	fca42e23          	sw	a0,-36(s0)
  70:	fdc42783          	lw	a5,-36(s0)
  74:	fef42623          	sw	a5,-20(s0)
  78:	0440006f          	j	bc <printStr+0x5c>
  7c:	fec42783          	lw	a5,-20(s0)
  80:	0007c783          	lbu	a5,0(a5)
  84:	00078713          	mv	a4,a5
  88:	000017b7          	lui	a5,0x1
  8c:	0407a783          	lw	a5,64(a5) # 1040 <judgeResult>
  90:	00f74733          	xor	a4,a4,a5
  94:	000017b7          	lui	a5,0x1
  98:	04e7a023          	sw	a4,64(a5) # 1040 <judgeResult>
  9c:	000017b7          	lui	a5,0x1
  a0:	0407a783          	lw	a5,64(a5) # 1040 <judgeResult>
  a4:	20978713          	addi	a4,a5,521
  a8:	000017b7          	lui	a5,0x1
  ac:	04e7a023          	sw	a4,64(a5) # 1040 <judgeResult>
  b0:	fec42783          	lw	a5,-20(s0)
  b4:	00178793          	addi	a5,a5,1
  b8:	fef42623          	sw	a5,-20(s0)
  bc:	fec42783          	lw	a5,-20(s0)
  c0:	0007c783          	lbu	a5,0(a5)
  c4:	fa079ce3          	bnez	a5,7c <printStr+0x1c>
  c8:	00000013          	nop
  cc:	00000013          	nop
  d0:	02c12403          	lw	s0,44(sp)
  d4:	03010113          	addi	sp,sp,48
  d8:	00008067          	ret

000000dc <main>:
  dc:	fe010113          	addi	sp,sp,-32
  e0:	00112e23          	sw	ra,28(sp)
  e4:	00812c23          	sw	s0,24(sp)
  e8:	02010413          	addi	s0,sp,32
  ec:	fe042423          	sw	zero,-24(s0)
  f0:	fe042623          	sw	zero,-20(s0)
  f4:	0480006f          	j	13c <main+0x60>
  f8:	23000713          	li	a4,560
  fc:	fec42783          	lw	a5,-20(s0)
 100:	00279793          	slli	a5,a5,0x2
 104:	00f707b3          	add	a5,a4,a5
 108:	0007a703          	lw	a4,0(a5)
 10c:	6e000693          	li	a3,1760
 110:	fec42783          	lw	a5,-20(s0)
 114:	00279793          	slli	a5,a5,0x2
 118:	00f687b3          	add	a5,a3,a5
 11c:	0007a783          	lw	a5,0(a5)
 120:	00f707b3          	add	a5,a4,a5
 124:	fef42223          	sw	a5,-28(s0)
 128:	fe442503          	lw	a0,-28(s0)
 12c:	ee9ff0ef          	jal	14 <printInt>
 130:	fec42783          	lw	a5,-20(s0)
 134:	00178793          	addi	a5,a5,1
 138:	fef42623          	sw	a5,-20(s0)
 13c:	fec42703          	lw	a4,-20(s0)
 140:	12b00793          	li	a5,299
 144:	fae7dae3          	bge	a5,a4,f8 <main+0x1c>
 148:	000017b7          	lui	a5,0x1
 14c:	0407a783          	lw	a5,64(a5) # 1040 <judgeResult>
 150:	0fd00713          	li	a4,253
 154:	00070593          	mv	a1,a4
 158:	00078513          	mv	a0,a5
 15c:	0a0000ef          	jal	1fc <__modsi3>
 160:	00050793          	mv	a5,a0
 164:	00078513          	mv	a0,a5
 168:	01c12083          	lw	ra,28(sp)
 16c:	01812403          	lw	s0,24(sp)
 170:	02010113          	addi	sp,sp,32
 174:	00008067          	ret

00000178 <__divsi3>:
 178:	06054063          	bltz	a0,1d8 <__umodsi3+0x10>
 17c:	0605c663          	bltz	a1,1e8 <__umodsi3+0x20>

00000180 <__hidden___udivsi3>:
 180:	00058613          	mv	a2,a1
 184:	00050593          	mv	a1,a0
 188:	fff00513          	li	a0,-1
 18c:	02060c63          	beqz	a2,1c4 <__hidden___udivsi3+0x44>
 190:	00100693          	li	a3,1
 194:	00b67a63          	bgeu	a2,a1,1a8 <__hidden___udivsi3+0x28>
 198:	00c05863          	blez	a2,1a8 <__hidden___udivsi3+0x28>
 19c:	00161613          	slli	a2,a2,0x1
 1a0:	00169693          	slli	a3,a3,0x1
 1a4:	feb66ae3          	bltu	a2,a1,198 <__hidden___udivsi3+0x18>
 1a8:	00000513          	li	a0,0
 1ac:	00c5e663          	bltu	a1,a2,1b8 <__hidden___udivsi3+0x38>
 1b0:	40c585b3          	sub	a1,a1,a2
 1b4:	00d56533          	or	a0,a0,a3
 1b8:	0016d693          	srli	a3,a3,0x1
 1bc:	00165613          	srli	a2,a2,0x1
 1c0:	fe0696e3          	bnez	a3,1ac <__hidden___udivsi3+0x2c>
 1c4:	00008067          	ret

000001c8 <__umodsi3>:
 1c8:	00008293          	mv	t0,ra
 1cc:	fb5ff0ef          	jal	180 <__hidden___udivsi3>
 1d0:	00058513          	mv	a0,a1
 1d4:	00028067          	jr	t0
 1d8:	40a00533          	neg	a0,a0
 1dc:	00b04863          	bgtz	a1,1ec <__umodsi3+0x24>
 1e0:	40b005b3          	neg	a1,a1
 1e4:	f9dff06f          	j	180 <__hidden___udivsi3>
 1e8:	40b005b3          	neg	a1,a1
 1ec:	00008293          	mv	t0,ra
 1f0:	f91ff0ef          	jal	180 <__hidden___udivsi3>
 1f4:	40a00533          	neg	a0,a0
 1f8:	00028067          	jr	t0

000001fc <__modsi3>:
 1fc:	00008293          	mv	t0,ra
 200:	0005ca63          	bltz	a1,214 <__modsi3+0x18>
 204:	00054c63          	bltz	a0,21c <__modsi3+0x20>
 208:	f79ff0ef          	jal	180 <__hidden___udivsi3>
 20c:	00058513          	mv	a0,a1
 210:	00028067          	jr	t0
 214:	40b005b3          	neg	a1,a1
 218:	fe0558e3          	bgez	a0,208 <__modsi3+0xc>
 21c:	40a00533          	neg	a0,a0
 220:	f61ff0ef          	jal	180 <__hidden___udivsi3>
 224:	40b00533          	neg	a0,a1
 228:	00028067          	jr	t0

Disassembly of section .rodata:

0000022c <Mod>:
 22c:	000000fd                                ....

Disassembly of section .data:

00000230 <input1_data>:
     230:	00000029 00000341 00000234 000000bb     )...A...4.......
     240:	000002ed 0000015e 00000084 000003b5     ....^...........
     250:	00000248 00000325 0000026d 00000006     H...%...m.......
     260:	000003a3 0000037a 00000188 000002b6     ....z...........
     270:	000003c1 0000006e 00000074 00000128     ....n...t...(...
     280:	000001aa 0000013a 00000293 00000306     ....:...........
     290:	0000013f 000002a6 0000036b 00000178     ?.......k...x...
     2a0:	000001da 000003aa 0000021b 00000239     ............9...
     2b0:	000000cb 00000118 000002f7 0000025e     ............^...
     2c0:	000001ff 00000291 000000c3 00000051     ............Q...
     2d0:	0000010b 000000e5 00000151 000003b0     ........Q.......
     2e0:	00000386 000000f1 00000391 0000033a     ............:...
     2f0:	000003a5 000003d9 000000c3 000003c0     ................
     300:	00000236 0000015e 00000289 00000291     6...^...........
     310:	000000b5 0000006f 0000035b 00000041     ....o...[...A...
     320:	00000120 0000015d 0000008d 00000389      ...]...........
     330:	00000376 00000108 00000240 000003d3     v.......@.......
     340:	000002f9 000000f1 000001de 000001f3     ................
     350:	00000193 000000de 000001bc 000002d1     ................
     360:	000002a4 0000013d 000000e0 000003a9     ....=...........
     370:	00000120 00000077 00000267 0000025e      ...w...g...^...
     380:	00000185 0000015f 000001c7 00000116     ...._...........
     390:	0000016f 00000166 00000248 0000003e     o...f...H...>...
     3a0:	000003d9 00000193 0000015a 00000205     ........Z.......
     3b0:	0000022f 0000038c 00000307 000000ff     /...............
     3c0:	0000030a 00000256 0000008f 00000021     ....V.......!...
     3d0:	0000007d 000003ad 000003a5 0000031f     }...............
     3e0:	00000229 000001af 00000288 000003b8     )...............
     3f0:	0000011f 00000013 00000031 00000056     ........1...V...
     400:	0000005f 000001b9 0000024b 00000266     _.......K...f...
     410:	0000017e 00000118 00000328 000003cb     ~.......(.......
     420:	00000333 00000158 000001c2 00000200     3...X...........
     430:	000003c5 0000015b 00000328 00000372     ....[...(...r...
     440:	00000219 000003b2 000002bd 00000164     ............d...
     450:	00000237 0000037b 00000016 00000238     7...{.......8...
     460:	00000299 000001a7 000001b2 0000009e     ................
     470:	00000002 00000054 000000f7 00000031     ....T.......1...
     480:	000001b3 00000318 00000365 000001e6     ........e.......
     490:	0000019e 00000171 00000224 00000206     ....q...$.......
     4a0:	00000378 000002aa 0000011c 00000108     x...............
     4b0:	000001f3 00000122 00000381 000000d7     ...."...........
     4c0:	000002db 000002b0 000000fb 00000312     ................
     4d0:	0000022b 0000012e 00000210 00000220     +........... ...
     4e0:	00000142 000003b3 0000011f 00000338     B...........8...
     4f0:	00000130 00000314 000002dd 000003bf     0...............
     500:	0000016e 000002d2 00000126 000003cf     n.......&.......
     510:	0000028d 000002ec 0000005b 0000017a     ........[...z...
     520:	00000069 00000066 0000017d 0000028b     i...f...}.......
     530:	00000339 00000348 00000164 00000094     9...H...d.......
     540:	00000036 0000008c 000003bb 00000157     6...........W...
     550:	00000215 000002f5 00000209 00000345     ............E...
     560:	00000250 0000000d 000000ad 0000003f     P...........?...
     570:	00000079 00000085 000002f6 00000174     y...........t...
     580:	000003b7 00000027 00000081 0000006e     ....'.......n...
     590:	0000034f 000001b5 000000ff 0000010d     O...............
     5a0:	00000199 00000274 0000018f 00000225     ....t.......%...
     5b0:	000002f1 00000234 000000ab 00000013     ....4...........
     5c0:	000002d7 000001f5 00000309 0000002b     ............+...
     5d0:	000002f1 00000051 000000ca 00000355     ....Q.......U...
     5e0:	00000099 000002f8 00000165 000003af     ........e.......
     5f0:	0000039a 00000148 000001f0 000001ba     ....H...........
     600:	00000204 00000281 00000114 00000312     ................
     610:	00000071 0000034a 0000038b 00000113     q...J...........
     620:	000000ed 00000020 00000310 00000235     .... .......5...
     630:	00000165 00000323 00000333 000002ef     e...#...3.......
     640:	00000118 00000055 000001ca 000001c6     ....U...........
     650:	000002c6 000001cb 00000029 000000fd     ........).......
     660:	00000179 000001fc 000002bc 0000035c     y...........\...
     670:	000001e0 000002e5 000001f3 000002c5     ................
     680:	00000031 00000173 00000369 000003b1     1...s...i.......
     690:	000003e0 0000020e 000002d1 000001b3     ................
     6a0:	000000e8 000001f1 000002b9 0000001e     ................
     6b0:	0000015c 000000fa 0000015e 000000fa     \.......^.......
     6c0:	0000023d 00000310 000002ed 000001f6     =...............
     6d0:	00000337 0000033a 000000aa 000000a0     7...:...........

000006e0 <input2_data>:
     6e0:	000001c6 0000014f 00000001 000003dd     ....O...........
     6f0:	0000016d 0000023c 00000040 00000099     m...<...@.......
     700:	000000d8 0000008c 000000d2 0000023c     ............<...
     710:	00000153 00000251 00000382 000000e4     S...Q...........
     720:	0000000c 00000373 000002ee 00000286     ....s...........
     730:	000001f4 000001b4 000002bd 0000032c     ............,...
     740:	000003d5 00000096 000002b8 00000234     ............4...
     750:	00000110 00000102 00000287 000001fd     ................
     760:	00000058 000002bf 0000029d 00000177     X...........w...
     770:	00000227 000003a8 00000250 00000239     '.......P...9...
     780:	000003b8 00000320 00000248 00000283     .... ...H.......
     790:	00000170 000001e9 00000148 00000139     p.......H...9...
     7a0:	00000250 00000184 0000021f 00000289     P...............
     7b0:	000003d3 000003e5 0000032e 0000004f     ............O...
     7c0:	000000d0 000003e6 00000275 0000034f     ........u...O...
     7d0:	000002c0 000003e5 000000fd 000002cb     ................
     7e0:	000001ae 0000019f 0000021a 000002bc     ................
     7f0:	00000004 000001ee 00000064 00000360     ........d...`...
     800:	000002b5 000001a0 00000128 0000011d     ........(.......
     810:	0000026c 0000004e 0000015f 0000021c     l...N..._.......
     820:	00000286 000000a9 0000020f 00000121     ............!...
     830:	0000031c 00000321 000002d0 000002f6     ....!...........
     840:	000002e9 0000005c 000003dd 0000010f     ....\...........
     850:	00000355 00000314 00000213 000000de     U...............
     860:	000001cd 000000f1 00000166 0000014c     ........f...L...
     870:	000002ac 000002e4 000001be 00000137     ............7...
     880:	000002e7 0000022d 000001df 0000022d     ....-.......-...
     890:	0000039d 0000031c 00000165 0000037b     ........e...{...
     8a0:	0000029a 00000202 0000022d 00000366     ........-...f...
     8b0:	00000355 000001b8 0000003d 000002a6     U.......=.......
     8c0:	0000018c 00000009 00000011 000000aa     ................
     8d0:	00000123 0000017c 00000218 000000b9     #...|...........
     8e0:	00000395 0000021b 000003d7 00000377     ............w...
     8f0:	00000036 00000264 000003b7 000001df     6...d...........
     900:	00000097 00000007 00000281 0000014f     ............O...
     910:	000002da 0000005f 000002d8 00000118     ...._...........
     920:	0000018b 000002b0 0000038f 000001dc     ................
     930:	0000032f 000002d9 00000109 0000007f     /...............
     940:	000000ec 000000d6 000000b4 00000006     ................
     950:	000001f7 00000254 000000ad 00000283     ....T...........
     960:	0000015a 00000257 00000044 00000351     Z...W...D...Q...
     970:	00000292 0000026b 00000079 00000083     ....k...y.......
     980:	0000033c 0000029b 000001b1 000001e7     <...............
     990:	000002f1 0000007d 00000272 0000000e     ....}...r.......
     9a0:	0000000a 00000193 0000006a 000002bf     ........j.......
     9b0:	00000332 000003c4 00000196 0000036a     2...........j...
     9c0:	00000358 00000056 0000003c 00000294     X...V...<.......
     9d0:	0000029b 00000099 00000079 00000062     ........y...b...
     9e0:	0000019c 000000ec 0000000c 000001a7     ................
     9f0:	000003c5 000000d8 0000026d 00000169     ........m...i...
     a00:	00000399 000002cb 00000287 0000012b     ............+...
     a10:	00000376 000002aa 00000024 000001ed     v.......$.......
     a20:	00000227 00000219 000003c9 00000283     '...............
     a30:	000001b2 0000019f 0000012f 000001b6     ......../.......
     a40:	0000035c 000000cb 000001de 000003dc     \...............
     a50:	000002a3 000002cf 000003de 00000152     ............R...
     a60:	000001c2 00000279 0000009b 00000286     ....y...........
     a70:	000001c4 000001ab 000001fd 000003dc     ................
     a80:	000001aa 0000000c 000001e3 0000008e     ................
     a90:	00000153 00000186 00000032 000000ab     S.......2.......
     aa0:	00000259 00000069 000003c8 00000079     Y...i.......y...
     ab0:	0000036f 00000051 00000366 00000258     o...Q...f...X...
     ac0:	0000025b 00000367 00000377 00000262     [...g...w...b...
     ad0:	00000194 000000ea 000002e9 0000020e     ................
     ae0:	00000113 000001b9 000000e2 000002f0     ................
     af0:	000003af 000002d6 000002c5 000000c9     ................
     b00:	00000036 000002f6 00000035 0000018d     6.......5.......
     b10:	00000029 0000008d 000001a0 000002eb     )...............
     b20:	000000db 000001de 00000302 000000b4     ................
     b30:	000001e2 000002b3 000002d5 000000ad     ................
     b40:	000000ba 00000392 00000001 000003c3     ................
     b50:	000000f7 000001d0 0000016a 00000209     ........j.......
     b60:	000000e9 00000078 00000028 0000030b     ....x...(.......
     b70:	000000c3 000000a1 000002e7 000001b7     ................
     b80:	00000163 00000193 0000008d 00000279     c...........y...

00000b90 <verify_data>:
     b90:	000001ef 00000490 00000235 00000498     ........5.......
     ba0:	0000045a 0000039a 000000c4 0000044e     Z...........N...
     bb0:	00000320 000003b1 0000033f 00000242      .......?...B...
     bc0:	000004f6 000005cb 0000050a 0000039a     ................
     bd0:	000003cd 000003e1 00000362 000003ae     ........b.......
     be0:	0000039e 000002ee 00000550 00000632     ........P...2...
     bf0:	00000514 0000033c 00000623 000003ac     ....<...#.......
     c00:	000002ea 000004ac 000004a2 00000436     ............6...
     c10:	00000123 000003d7 00000594 000003d5     #...............
     c20:	00000426 00000639 00000313 0000028a     &...9...........
     c30:	000004c3 00000405 00000399 00000633     ............3...
     c40:	000004f6 000002da 000004d9 00000473     ............s...
     c50:	000005f5 0000055d 000002e2 00000649     ....].......I...
     c60:	00000609 00000543 000005b7 000002e0     ....C...........
     c70:	00000185 00000455 000005d0 00000390     ....U...........
     c80:	000003e0 00000542 0000018a 00000654     ....B.......T...
     c90:	00000524 000002a7 0000045a 0000068f     $.......Z.......
     ca0:	000002fd 000002df 00000242 00000553     ........B...S...
     cb0:	00000448 0000027e 000002e4 000003ee     H...~...........
     cc0:	00000510 0000018b 0000023f 000005c5     ........?.......
     cd0:	000003a6 00000120 00000476 0000037f     .... ...v.......
     ce0:	000004a1 00000480 00000497 0000040c     ................
     cf0:	00000458 000001c2 00000625 0000014d     X.......%...M...
     d00:	0000072e 000004a7 0000036d 000002e3     ........m.......
     d10:	000003fc 0000047d 0000046d 0000024b     ....}...m...K...
     d20:	000005b6 0000053a 0000024d 00000158     ....:...M...X...
     d30:	00000364 000005da 00000584 0000054c     d...........L...
     d40:	000005c6 000004cb 000003ed 00000733     ............3...
     d50:	000003b9 00000215 0000025e 000003bc     ........^.......
     d60:	000003b4 00000371 00000288 0000050c     ....q...........
     d70:	0000030a 00000121 00000339 00000475     ....!...9...u...
     d80:	00000456 000002d4 000003da 000002b9     V...............
     d90:	0000075a 00000376 000006ff 000006e9     Z...v...........
     da0:	0000024f 00000616 00000674 00000343     O.......t...C...
     db0:	000002ce 00000382 00000297 00000387     ................
     dc0:	00000573 00000206 0000048a 000001b6     s...............
     dd0:	0000018d 00000304 00000486 0000020d     ................
     de0:	000004e2 000005f1 0000046e 00000265     ........n...e...
     df0:	0000028a 00000247 000002d8 0000020c     ....G...........
     e00:	0000056f 000004fe 000001c9 0000038b     o...............
     e10:	0000034d 00000379 000003c5 00000428     M...y.......(...
     e20:	0000056d 0000051b 00000174 00000395     m.......t.......
     e30:	00000567 000003c9 000003c1 00000407     g...............
     e40:	00000433 00000430 00000391 00000346     3...0.......F...
     e50:	0000013a 000004a7 00000347 0000067e     :.......G...~...
     e60:	000004a0 00000696 000002bc 00000739     ............9...
     e70:	000005e5 00000342 00000097 0000040e     ....B...........
     e80:	00000304 000000ff 000001f6 000002ed     ................
     e90:	000004d5 00000434 00000170 0000023b     ....4...p...;...
     ea0:	000003fb 00000164 00000628 000002c0     ....d...(.......
     eb0:	000005ae 000005c0 00000490 00000470     ............p...
     ec0:	000005c6 000002b7 000000d1 0000022c     ............,...
     ed0:	000002a0 0000029e 000006bf 000003f7     ................
     ee0:	00000569 000001c6 000001b0 00000224     i...........$...
     ef0:	000006ab 00000280 000002dd 000004e9     ................
     f00:	0000043c 00000543 0000056d 00000377     <...C...m...w...
     f10:	000004b3 000004ad 00000146 00000299     ........F.......
     f20:	0000049b 000003a0 00000506 00000407     ................
     f30:	0000049b 0000005d 000002ad 000003e3     ....]...........
     f40:	000001ec 0000047e 00000197 0000045a     ....~.......Z...
     f50:	000005f3 000001b1 000005b8 00000233     ............3...
     f60:	00000573 000002d2 0000047a 0000056a     s.......z...j...
     f70:	000002cc 000006b1 00000702 00000375     ............u...
     f80:	00000281 0000010a 000005f9 00000443     ............C...
     f90:	00000278 000004dc 00000415 000005df     x...............
     fa0:	000004c7 0000032b 0000048f 0000028f     ....+...........
     fb0:	000002fc 000004c1 0000005e 0000028a     ........^.......
     fc0:	000001a2 00000289 0000045c 00000647     ........\...G...
     fd0:	000002bb 000004c3 000004f5 00000379     ............y...
     fe0:	00000213 00000426 0000063e 0000045e     ....&...>...^...
     ff0:	0000049a 000005a0 000002d2 00000576     ............v...
    1000:	000001df 000003c1 00000423 00000227     ........#...'...
    1010:	00000245 00000172 00000186 00000405     E...r...........
    1020:	00000300 000003b1 000005d4 000003ad     ................
    1030:	0000049a 000004cd 00000137 00000319     ........7.......
